target datalayout = "e-m:e-p270:32:32-p271:32:32-p272:64:64-i64:64-i128:128-f80:128-n8:16:32:64-S128"
target triple = "x86_64-pc-linux-gnu"

%struct.search_path_bfs_t = type { ptr, ptr, ptr, ptr }
%struct.search_path_queue_tag = type { ptr, ptr }

; Function Attrs: nounwind sspstrong uwtable
define internal i32 @transcode_search_path_i(i64 noundef %0, i64 noundef %1, i64 noundef %2) #0 {
  %4 = alloca i32, align 4
  %5 = alloca i64, align 8
  %6 = alloca i64, align 8
  %7 = alloca i64, align 8
  %8 = alloca ptr, align 8
  %9 = alloca ptr, align 8
  %10 = alloca ptr, align 8
  %11 = alloca i32, align 4
  store i64 %0, ptr %5, align 8, !tbaa !12
  store i64 %1, ptr %6, align 8, !tbaa !12
  store i64 %2, ptr %7, align 8, !tbaa !12
  call void @llvm.lifetime.start.p0(i64 8, ptr %8) #25
  %12 = load i64, ptr %5, align 8, !tbaa !12
  %13 = inttoptr i64 %12 to ptr
  store ptr %13, ptr %8, align 8, !tbaa !21
  call void @llvm.lifetime.start.p0(i64 8, ptr %9) #25
  %14 = load i64, ptr %7, align 8, !tbaa !12
  %15 = inttoptr i64 %14 to ptr
  store ptr %15, ptr %9, align 8, !tbaa !23
  call void @llvm.lifetime.start.p0(i64 8, ptr %10) #25
  %16 = load ptr, ptr %9, align 8, !tbaa !23
  %17 = getelementptr inbounds nuw %struct.search_path_bfs_t, ptr %16, i32 0, i32 0
  %18 = load ptr, ptr %17, align 8, !tbaa !127
  %19 = load ptr, ptr %8, align 8, !tbaa !21
  %20 = ptrtoint ptr %19 to i64
  %21 = call i32 @rb_st_lookup(ptr noundef %18, i64 noundef %20, ptr noundef %6)
  %22 = icmp ne i32 %21, 0
  br i1 %22, label %23, label %24

23:                                               ; preds = %3
  store i32 0, ptr %4, align 4
  store i32 1, ptr %11, align 4
  br label %48

24:                                               ; preds = %3
  %25 = call noalias nonnull ptr @ruby_xmalloc(i64 noundef 16) #27
  store ptr %25, ptr %10, align 8, !tbaa !118
  %26 = load ptr, ptr %8, align 8, !tbaa !21
  %27 = load ptr, ptr %10, align 8, !tbaa !118
  %28 = getelementptr inbounds nuw %struct.search_path_queue_tag, ptr %27, i32 0, i32 1
  store ptr %26, ptr %28, align 8, !tbaa !120
  %29 = load ptr, ptr %10, align 8, !tbaa !118
  %30 = getelementptr inbounds nuw %struct.search_path_queue_tag, ptr %29, i32 0, i32 0
  store ptr null, ptr %30, align 8, !tbaa !122
  %31 = load ptr, ptr %10, align 8, !tbaa !118
  %32 = load ptr, ptr %9, align 8, !tbaa !23
  %33 = getelementptr inbounds nuw %struct.search_path_bfs_t, ptr %32, i32 0, i32 2
  %34 = load ptr, ptr %33, align 8, !tbaa !123
  store ptr %31, ptr %34, align 8, !tbaa !118
  %35 = load ptr, ptr %10, align 8, !tbaa !118
  %36 = getelementptr inbounds nuw %struct.search_path_queue_tag, ptr %35, i32 0, i32 0
  %37 = load ptr, ptr %9, align 8, !tbaa !23
  %38 = getelementptr inbounds nuw %struct.search_path_bfs_t, ptr %37, i32 0, i32 2
  store ptr %36, ptr %38, align 8, !tbaa !123
  %39 = load ptr, ptr %9, align 8, !tbaa !23
  %40 = getelementptr inbounds nuw %struct.search_path_bfs_t, ptr %39, i32 0, i32 0
  %41 = load ptr, ptr %40, align 8, !tbaa !127
  %42 = load ptr, ptr %8, align 8, !tbaa !21
  %43 = ptrtoint ptr %42 to i64
  %44 = load ptr, ptr %9, align 8, !tbaa !23
  %45 = getelementptr inbounds nuw %struct.search_path_bfs_t, ptr %44, i32 0, i32 3
  %46 = load ptr, ptr %45, align 8, !tbaa !129
  %47 = ptrtoint ptr %46 to i64
  call void @rb_st_add_direct(ptr noundef %41, i64 noundef %43, i64 noundef %47)
  store i32 0, ptr %4, align 4
  store i32 1, ptr %11, align 4
  br label %48

48:                                               ; preds = %24, %23
  call void @llvm.lifetime.end.p0(i64 8, ptr %10) #25
  call void @llvm.lifetime.end.p0(i64 8, ptr %9) #25
  call void @llvm.lifetime.end.p0(i64 8, ptr %8) #25
  %49 = load i32, ptr %4, align 4
  ret i32 %49
}