; Function Attrs: nounwind sspstrong uwtable
define internal noundef i32 @transcode_search_path_i(i64 noundef %0, i64 noundef %1, i64 noundef %2) #0 {
  %4 = alloca i64, align 8
  store i64 %1, ptr %4, align 8, !tbaa !22
  %5 = inttoptr i64 %2 to ptr
  %6 = load ptr, ptr %5, align 8, !tbaa !180
  %7 = call i32 @rb_st_lookup(ptr noundef %6, i64 noundef %0, ptr noundef nonnull %4) #22
  %.not = icmp eq i32 %7, 0
  br i1 %.not, label %8, label %18

8:                                                ; preds = %3
  %9 = inttoptr i64 %0 to ptr
  %10 = call noalias nonnull dereferenceable(16) ptr @ruby_xmalloc(i64 noundef 16) #24
  %11 = getelementptr inbounds nuw i8, ptr %10, i64 8
  store ptr %9, ptr %11, align 8, !tbaa !173
  store ptr null, ptr %10, align 8, !tbaa !176
  %12 = getelementptr inbounds nuw i8, ptr %5, i64 16
  %13 = load ptr, ptr %12, align 8, !tbaa !177
  store ptr %10, ptr %13, align 8, !tbaa !307
  store ptr %10, ptr %12, align 8, !tbaa !177
  %14 = load ptr, ptr %5, align 8, !tbaa !180
  %15 = getelementptr inbounds nuw i8, ptr %5, i64 24
  %16 = load ptr, ptr %15, align 8, !tbaa !183
  %17 = ptrtoint ptr %16 to i64
  call void @rb_st_add_direct(ptr noundef %14, i64 noundef %0, i64 noundef %17) #22
  br label %18

18:                                               ; preds = %3, %8
  ret i32 0
}